; Function Attrs: mustprogress uwtable
define internal fastcc noundef ptr @_ZL10parse_namePKc(ptr noundef %0) unnamed_addr #0 personality ptr @__gxx_personality_v0 {
  %2 = alloca %"class.std::__cxx11::basic_string", align 8
  %3 = alloca %"class.std::__cxx11::basic_string", align 8
  %4 = alloca %"class.std::allocator.3", align 1
  br label %5

5:                                                ; preds = %_ZL12is_word_charc.exit.thread, %1
  %.013 = phi ptr [ %0, %1 ], [ %13, %_ZL12is_word_charc.exit.thread ]
  %6 = load i8, ptr %.013, align 1, !tbaa !20
  %7 = add i8 %6, -97
  %or.cond.i = icmp ult i8 %7, 26
  br i1 %or.cond.i, label %_ZL12is_word_charc.exit.thread, label %8

8:                                                ; preds = %5
  %9 = add i8 %6, -65
  %or.cond5.i = icmp ult i8 %9, 26
  %10 = icmp eq i8 %6, 45
  %or.cond8.i = or i1 %10, %or.cond5.i
  %11 = add i8 %6, -48
  %12 = icmp ult i8 %11, 10
  %or.cond = or i1 %12, %or.cond8.i
  br i1 %or.cond, label %_ZL12is_word_charc.exit.thread, label %14

_ZL12is_word_charc.exit.thread:                   ; preds = %8, %5
  %13 = getelementptr inbounds nuw i8, ptr %.013, i64 1
  br label %5, !llvm.loop !72

14:                                               ; preds = %8
  %15 = icmp eq ptr %.013, %0
  br i1 %15, label %16, label %51

16:                                               ; preds = %14
  %17 = tail call ptr @__cxa_allocate_exception(i64 16) #28
  call void @llvm.lifetime.start.p0(i64 32, ptr nonnull %2) #28
  call void @llvm.lifetime.start.p0(i64 32, ptr nonnull %3) #28
  call void @llvm.lifetime.start.p0(i64 1, ptr nonnull %4) #28
  invoke void @_ZNSt7__cxx1112basic_stringIcSt11char_traitsIcESaIcEEC2IS3_EEPKcRKS3_(ptr noundef nonnull align 8 dereferenceable(32) %3, ptr noundef nonnull @.str.32, ptr noundef nonnull align 1 dereferenceable(1) %4)
          to label %18 unwind label %_ZNSt7__cxx1112basic_stringIcSt11char_traitsIcESaIcEED2Ev.exit19.thread

18:                                               ; preds = %16
  invoke void @_ZStplIcSt11char_traitsIcESaIcEENSt7__cxx1112basic_stringIT_T0_T1_EEOS8_PKS5_(ptr dead_on_unwind nonnull writable sret(%"class.std::__cxx11::basic_string") align 8 %2, ptr noundef nonnull align 8 dereferenceable(32) %3, ptr noundef %0)
          to label %19 unwind label %_ZNSt7__cxx1112basic_stringIcSt11char_traitsIcESaIcEED2Ev.exit.thread

19:                                               ; preds = %18
  invoke void @_ZNSt13runtime_errorC1ERKNSt7__cxx1112basic_stringIcSt11char_traitsIcESaIcEEE(ptr noundef nonnull align 8 dereferenceable(16) %17, ptr noundef nonnull align 8 dereferenceable(32) %2)
          to label %20 unwind label %22

20:                                               ; preds = %19
  invoke void @__cxa_throw(ptr nonnull %17, ptr nonnull @_ZTISt13runtime_error, ptr nonnull @_ZNSt13runtime_errorD1Ev) #29
          to label %52 unwind label %22

_ZNSt7__cxx1112basic_stringIcSt11char_traitsIcESaIcEED2Ev.exit19.thread: ; preds = %16
  %21 = landingpad { ptr, i32 }
          cleanup
  br label %.sink.split

22:                                               ; preds = %20, %19
  %.0 = phi i1 [ false, %20 ], [ true, %19 ]
  %23 = landingpad { ptr, i32 }
          cleanup
  %24 = load ptr, ptr %2, align 8, !tbaa !18
  %25 = getelementptr inbounds nuw i8, ptr %2, i64 16
  %26 = icmp eq ptr %24, %25
  br i1 %26, label %_ZNKSt7__cxx1112basic_stringIcSt11char_traitsIcESaIcEE11_M_is_localEv.exit.thread.i.i, label %_ZNKSt7__cxx1112basic_stringIcSt11char_traitsIcESaIcEE11_M_is_localEv.exit.i.i

_ZNKSt7__cxx1112basic_stringIcSt11char_traitsIcESaIcEE11_M_is_localEv.exit.thread.i.i: ; preds = %22
  %27 = getelementptr inbounds nuw i8, ptr %2, i64 8
  %28 = load i64, ptr %27, align 8, !tbaa !21
  %29 = icmp ult i64 %28, 16
  call void @llvm.assume(i1 %29)
  br label %_ZNSt7__cxx1112basic_stringIcSt11char_traitsIcESaIcEED2Ev.exit

_ZNKSt7__cxx1112basic_stringIcSt11char_traitsIcESaIcEE11_M_is_localEv.exit.i.i: ; preds = %22
  %30 = load i64, ptr %25, align 8, !tbaa !20
  %31 = add i64 %30, 1
  call void @_ZdlPvm(ptr noundef %24, i64 noundef %31) #30
  br label %_ZNSt7__cxx1112basic_stringIcSt11char_traitsIcESaIcEED2Ev.exit

_ZNSt7__cxx1112basic_stringIcSt11char_traitsIcESaIcEED2Ev.exit: ; preds = %_ZNKSt7__cxx1112basic_stringIcSt11char_traitsIcESaIcEE11_M_is_localEv.exit.i.i, %_ZNKSt7__cxx1112basic_stringIcSt11char_traitsIcESaIcEE11_M_is_localEv.exit.thread.i.i
  %32 = load ptr, ptr %3, align 8, !tbaa !18
  %33 = getelementptr inbounds nuw i8, ptr %3, i64 16
  %34 = icmp eq ptr %32, %33
  br i1 %34, label %_ZNKSt7__cxx1112basic_stringIcSt11char_traitsIcESaIcEE11_M_is_localEv.exit.thread.i.i18, label %_ZNSt7__cxx1112basic_stringIcSt11char_traitsIcESaIcEED2Ev.exit19

_ZNSt7__cxx1112basic_stringIcSt11char_traitsIcESaIcEED2Ev.exit.thread: ; preds = %18
  %35 = landingpad { ptr, i32 }
          cleanup
  %36 = load ptr, ptr %3, align 8, !tbaa !18
  %37 = getelementptr inbounds nuw i8, ptr %3, i64 16
  %38 = icmp eq ptr %36, %37
  br i1 %38, label %_ZNKSt7__cxx1112basic_stringIcSt11char_traitsIcESaIcEE11_M_is_localEv.exit.thread.i.i18.thread, label %_ZNSt7__cxx1112basic_stringIcSt11char_traitsIcESaIcEED2Ev.exit19.thread32

_ZNSt7__cxx1112basic_stringIcSt11char_traitsIcESaIcEED2Ev.exit19.thread32: ; preds = %_ZNSt7__cxx1112basic_stringIcSt11char_traitsIcESaIcEED2Ev.exit.thread
  %39 = load i64, ptr %37, align 8, !tbaa !20
  %40 = add i64 %39, 1
  call void @_ZdlPvm(ptr noundef %36, i64 noundef %40) #30
  br label %.sink.split

_ZNKSt7__cxx1112basic_stringIcSt11char_traitsIcESaIcEE11_M_is_localEv.exit.thread.i.i18.thread: ; preds = %_ZNSt7__cxx1112basic_stringIcSt11char_traitsIcESaIcEED2Ev.exit.thread
  %41 = getelementptr inbounds nuw i8, ptr %3, i64 8
  %42 = load i64, ptr %41, align 8, !tbaa !21
  %43 = icmp ult i64 %42, 16
  call void @llvm.assume(i1 %43)
  br label %.sink.split

_ZNKSt7__cxx1112basic_stringIcSt11char_traitsIcESaIcEE11_M_is_localEv.exit.thread.i.i18: ; preds = %_ZNSt7__cxx1112basic_stringIcSt11char_traitsIcESaIcEED2Ev.exit
  %44 = getelementptr inbounds nuw i8, ptr %3, i64 8
  %45 = load i64, ptr %44, align 8, !tbaa !21
  %46 = icmp ult i64 %45, 16
  call void @llvm.assume(i1 %46)
  call void @llvm.lifetime.end.p0(i64 1, ptr nonnull %4) #28
  call void @llvm.lifetime.end.p0(i64 32, ptr nonnull %3) #28
  call void @llvm.lifetime.end.p0(i64 32, ptr nonnull %2) #28
  br i1 %.0, label %49, label %50

_ZNSt7__cxx1112basic_stringIcSt11char_traitsIcESaIcEED2Ev.exit19: ; preds = %_ZNSt7__cxx1112basic_stringIcSt11char_traitsIcESaIcEED2Ev.exit
  %47 = load i64, ptr %33, align 8, !tbaa !20
  %48 = add i64 %47, 1
  call void @_ZdlPvm(ptr noundef %32, i64 noundef %48) #30
  call void @llvm.lifetime.end.p0(i64 1, ptr nonnull %4) #28
  call void @llvm.lifetime.end.p0(i64 32, ptr nonnull %3) #28
  call void @llvm.lifetime.end.p0(i64 32, ptr nonnull %2) #28
  br i1 %.0, label %49, label %50

.sink.split:                                      ; preds = %_ZNSt7__cxx1112basic_stringIcSt11char_traitsIcESaIcEED2Ev.exit19.thread, %_ZNKSt7__cxx1112basic_stringIcSt11char_traitsIcESaIcEE11_M_is_localEv.exit.thread.i.i18.thread, %_ZNSt7__cxx1112basic_stringIcSt11char_traitsIcESaIcEED2Ev.exit19.thread32
  %.pn.pn23.ph = phi { ptr, i32 } [ %35, %_ZNSt7__cxx1112basic_stringIcSt11char_traitsIcESaIcEED2Ev.exit19.thread32 ], [ %35, %_ZNKSt7__cxx1112basic_stringIcSt11char_traitsIcESaIcEE11_M_is_localEv.exit.thread.i.i18.thread ], [ %21, %_ZNSt7__cxx1112basic_stringIcSt11char_traitsIcESaIcEED2Ev.exit19.thread ]
  call void @llvm.lifetime.end.p0(i64 1, ptr nonnull %4) #28
  call void @llvm.lifetime.end.p0(i64 32, ptr nonnull %3) #28
  call void @llvm.lifetime.end.p0(i64 32, ptr nonnull %2) #28
  br label %49

49:                                               ; preds = %.sink.split, %_ZNKSt7__cxx1112basic_stringIcSt11char_traitsIcESaIcEE11_M_is_localEv.exit.thread.i.i18, %_ZNSt7__cxx1112basic_stringIcSt11char_traitsIcESaIcEED2Ev.exit19
  %.pn.pn23 = phi { ptr, i32 } [ %23, %_ZNSt7__cxx1112basic_stringIcSt11char_traitsIcESaIcEED2Ev.exit19 ], [ %23, %_ZNKSt7__cxx1112basic_stringIcSt11char_traitsIcESaIcEE11_M_is_localEv.exit.thread.i.i18 ], [ %.pn.pn23.ph, %.sink.split ]
  call void @__cxa_free_exception(ptr %17) #28
  br label %50

50:                                               ; preds = %_ZNKSt7__cxx1112basic_stringIcSt11char_traitsIcESaIcEE11_M_is_localEv.exit.thread.i.i18, %49, %_ZNSt7__cxx1112basic_stringIcSt11char_traitsIcESaIcEED2Ev.exit19
  %.pn.pn22 = phi { ptr, i32 } [ %.pn.pn23, %49 ], [ %23, %_ZNSt7__cxx1112basic_stringIcSt11char_traitsIcESaIcEED2Ev.exit19 ], [ %23, %_ZNKSt7__cxx1112basic_stringIcSt11char_traitsIcESaIcEE11_M_is_localEv.exit.thread.i.i18 ]
  resume { ptr, i32 } %.pn.pn22

51:                                               ; preds = %14
  ret ptr %.013

52:                                               ; preds = %20
  unreachable
}